; Function Attrs: nounwind uwtable
define hidden ptr @lexbor_mraw_dup_noi(ptr nocapture noundef %0, ptr nocapture noundef readonly %1, i64 noundef %2) local_unnamed_addr #0 {
  %4 = tail call ptr @lexbor_mraw_alloc(ptr noundef %0, i64 noundef %2)
  %.not.i = icmp eq ptr %4, null
  br i1 %.not.i, label %lexbor_mraw_dup.exit, label %5

5:                                                ; preds = %3
  tail call void @llvm.memcpy.p0.p0.i64(ptr nonnull align 1 %4, ptr align 1 %1, i64 %2, i1 false)
  br label %lexbor_mraw_dup.exit

lexbor_mraw_dup.exit:                             ; preds = %3, %5
  ret ptr %4
}